target datalayout = "e-m:e-p270:32:32-p271:32:32-p272:64:64-i64:64-i128:128-f80:128-n8:16:32:64-S128"
target triple = "x86_64-pc-linux-gnu"

%union.pthread_mutex_t = type { %struct.__pthread_mutex_s }
%struct.__pthread_mutex_s = type { i32, i32, i32, i32, i32, i16, i16, %struct.__pthread_internal_list }
%struct.__pthread_internal_list = type { ptr, ptr }
%struct.hostlist = type { i32, %union.pthread_mutex_t, i32, i32, i32, ptr, ptr }
%struct.hostlist_iterator = type { i32, ptr, i32, ptr, i32, ptr }

@.str.3 = private unnamed_addr constant [29 x i8] c"%s: pthread_mutex_lock(): %m\00", align 1
@.str.4 = private unnamed_addr constant [31 x i8] c"%s: pthread_mutex_unlock(): %m\00", align 1
@__func__.hostlist_uniq = private unnamed_addr constant [14 x i8] c"hostlist_uniq\00", align 1

; Function Attrs: nounwind uwtable
define dso_local void @hostlist_iterator_reset(ptr noundef %0) #0 {
  %2 = alloca ptr, align 8
  store ptr %0, ptr %2, align 8
  %3 = load ptr, ptr %2, align 8
  %4 = getelementptr inbounds nuw %struct.hostlist_iterator, ptr %3, i32 0, i32 2
  store i32 0, ptr %4, align 8
  %5 = load ptr, ptr %2, align 8
  %6 = getelementptr inbounds nuw %struct.hostlist_iterator, ptr %5, i32 0, i32 1
  %7 = load ptr, ptr %6, align 8
  %8 = getelementptr inbounds nuw %struct.hostlist, ptr %7, i32 0, i32 5
  %9 = load ptr, ptr %8, align 8
  %10 = getelementptr inbounds ptr, ptr %9, i64 0
  %11 = load ptr, ptr %10, align 8
  %12 = load ptr, ptr %2, align 8
  %13 = getelementptr inbounds nuw %struct.hostlist_iterator, ptr %12, i32 0, i32 3
  store ptr %11, ptr %13, align 8
  %14 = load ptr, ptr %2, align 8
  %15 = getelementptr inbounds nuw %struct.hostlist_iterator, ptr %14, i32 0, i32 4
  store i32 -1, ptr %15, align 8
  ret void
}

; Function Attrs: nounwind uwtable
define internal i32 @_attempt_range_join(ptr noundef %0, i32 noundef %1) #0 {
  %3 = alloca ptr, align 8
  %4 = alloca i32, align 4
  %5 = alloca i32, align 4
  store ptr %0, ptr %3, align 8
  store i32 %1, ptr %4, align 4
  call void @llvm.lifetime.start.p0(i64 4, ptr %5) #13
  %6 = load ptr, ptr %3, align 8
  %7 = getelementptr inbounds nuw %struct.hostlist, ptr %6, i32 0, i32 5
  %8 = load ptr, ptr %7, align 8
  %9 = load i32, ptr %4, align 4
  %10 = sub nsw i32 %9, 1
  %11 = sext i32 %10 to i64
  %12 = getelementptr inbounds ptr, ptr %8, i64 %11
  %13 = load ptr, ptr %12, align 8
  %14 = load ptr, ptr %3, align 8
  %15 = getelementptr inbounds nuw %struct.hostlist, ptr %14, i32 0, i32 5
  %16 = load ptr, ptr %15, align 8
  %17 = load i32, ptr %4, align 4
  %18 = sext i32 %17 to i64
  %19 = getelementptr inbounds ptr, ptr %16, i64 %18
  %20 = load ptr, ptr %19, align 8
  %21 = call i32 @hostrange_join(ptr noundef %13, ptr noundef %20)
  store i32 %21, ptr %5, align 4
  %22 = load i32, ptr %5, align 4
  %23 = icmp sge i32 %22, 0
  br i1 %23, label %24, label %32

24:                                               ; preds = %2
  %25 = load ptr, ptr %3, align 8
  %26 = load i32, ptr %4, align 4
  call void @hostlist_delete_range(ptr noundef %25, i32 noundef %26)
  %27 = load i32, ptr %5, align 4
  %28 = load ptr, ptr %3, align 8
  %29 = getelementptr inbounds nuw %struct.hostlist, ptr %28, i32 0, i32 4
  %30 = load i32, ptr %29, align 8
  %31 = sub nsw i32 %30, %27
  store i32 %31, ptr %29, align 8
  br label %32

32:                                               ; preds = %24, %2
  %33 = load i32, ptr %5, align 4
  call void @llvm.lifetime.end.p0(i64 4, ptr %5) #13
  ret i32 %33
}

; Function Attrs: nounwind uwtable
define dso_local void @hostlist_uniq(ptr noundef %0) #0 {
  %2 = alloca ptr, align 8
  %3 = alloca i32, align 4
  %4 = alloca ptr, align 8
  %5 = alloca i32, align 4
  %6 = alloca i32, align 4
  %7 = alloca i32, align 4
  %8 = alloca i32, align 4
  store ptr %0, ptr %2, align 8
  call void @llvm.lifetime.start.p0(i64 4, ptr %3) #13
  store i32 1, ptr %3, align 4
  call void @llvm.lifetime.start.p0(i64 8, ptr %4) #13
  br label %9

9:                                                ; preds = %1
  br label %10

10:                                               ; preds = %9
  call void @llvm.lifetime.start.p0(i64 4, ptr %5) #13
  %11 = load ptr, ptr %2, align 8
  %12 = getelementptr inbounds nuw %struct.hostlist, ptr %11, i32 0, i32 1
  %13 = call i32 @pthread_mutex_lock(ptr noundef %12) #13
  store i32 %13, ptr %5, align 4
  %14 = load i32, ptr %5, align 4
  %15 = icmp ne i32 %14, 0
  br i1 %15, label %16, label %19

16:                                               ; preds = %10
  %17 = load i32, ptr %5, align 4
  %18 = call ptr @__errno_location() #14
  store i32 %17, ptr %18, align 4
  call void (ptr, ...) @fatal_abort(ptr noundef @.str.3, ptr noundef @__func__.hostlist_uniq) #15
  unreachable

19:                                               ; preds = %10
  call void @llvm.lifetime.end.p0(i64 4, ptr %5) #13
  br label %20

20:                                               ; preds = %19
  br label %21

21:                                               ; preds = %20
  br label %22

22:                                               ; preds = %21
  br label %23

23:                                               ; preds = %22
  %24 = load ptr, ptr %2, align 8
  %25 = getelementptr inbounds nuw %struct.hostlist, ptr %24, i32 0, i32 3
  %26 = load i32, ptr %25, align 4
  %27 = icmp sle i32 %26, 1
  br i1 %27, label %28, label %44

28:                                               ; preds = %23
  br label %29

29:                                               ; preds = %28
  br label %30

30:                                               ; preds = %29
  call void @llvm.lifetime.start.p0(i64 4, ptr %6) #13
  %31 = load ptr, ptr %2, align 8
  %32 = getelementptr inbounds nuw %struct.hostlist, ptr %31, i32 0, i32 1
  %33 = call i32 @pthread_mutex_unlock(ptr noundef %32) #13
  store i32 %33, ptr %6, align 4
  %34 = load i32, ptr %6, align 4
  %35 = icmp ne i32 %34, 0
  br i1 %35, label %36, label %39

36:                                               ; preds = %30
  %37 = load i32, ptr %6, align 4
  %38 = call ptr @__errno_location() #14
  store i32 %37, ptr %38, align 4
  call void (ptr, ...) @fatal_abort(ptr noundef @.str.4, ptr noundef @__func__.hostlist_uniq) #15
  unreachable

39:                                               ; preds = %30
  call void @llvm.lifetime.end.p0(i64 4, ptr %6) #13
  br label %40

40:                                               ; preds = %39
  br label %41

41:                                               ; preds = %40
  br label %42

42:                                               ; preds = %41
  br label %43

43:                                               ; preds = %42
  store i32 1, ptr %7, align 4
  br label %96

44:                                               ; preds = %23
  %45 = load ptr, ptr %2, align 8
  %46 = getelementptr inbounds nuw %struct.hostlist, ptr %45, i32 0, i32 5
  %47 = load ptr, ptr %46, align 8
  %48 = load ptr, ptr %2, align 8
  %49 = getelementptr inbounds nuw %struct.hostlist, ptr %48, i32 0, i32 3
  %50 = load i32, ptr %49, align 4
  %51 = sext i32 %50 to i64
  call void @qsort(ptr noundef %47, i64 noundef %51, i64 noundef 8, ptr noundef @_cmp)
  br label %52

52:                                               ; preds = %66, %44
  %53 = load i32, ptr %3, align 4
  %54 = load ptr, ptr %2, align 8
  %55 = getelementptr inbounds nuw %struct.hostlist, ptr %54, i32 0, i32 3
  %56 = load i32, ptr %55, align 4
  %57 = icmp slt i32 %53, %56
  br i1 %57, label %58, label %67

58:                                               ; preds = %52
  %59 = load ptr, ptr %2, align 8
  %60 = load i32, ptr %3, align 4
  %61 = call i32 @_attempt_range_join(ptr noundef %59, i32 noundef %60)
  %62 = icmp slt i32 %61, 0
  br i1 %62, label %63, label %66

63:                                               ; preds = %58
  %64 = load i32, ptr %3, align 4
  %65 = add nsw i32 %64, 1
  store i32 %65, ptr %3, align 4
  br label %66

66:                                               ; preds = %63, %58
  br label %52, !llvm.loop !30

67:                                               ; preds = %52
  %68 = load ptr, ptr %2, align 8
  %69 = getelementptr inbounds nuw %struct.hostlist, ptr %68, i32 0, i32 6
  %70 = load ptr, ptr %69, align 8
  store ptr %70, ptr %4, align 8
  br label %71

71:                                               ; preds = %76, %67
  %72 = load ptr, ptr %4, align 8
  %73 = icmp ne ptr %72, null
  br i1 %73, label %74, label %80

74:                                               ; preds = %71
  %75 = load ptr, ptr %4, align 8
  call void @hostlist_iterator_reset(ptr noundef %75)
  br label %76

76:                                               ; preds = %74
  %77 = load ptr, ptr %4, align 8
  %78 = getelementptr inbounds nuw %struct.hostlist_iterator, ptr %77, i32 0, i32 5
  %79 = load ptr, ptr %78, align 8
  store ptr %79, ptr %4, align 8
  br label %71, !llvm.loop !31

80:                                               ; preds = %71
  br label %81

81:                                               ; preds = %80
  br label %82

82:                                               ; preds = %81
  call void @llvm.lifetime.start.p0(i64 4, ptr %8) #13
  %83 = load ptr, ptr %2, align 8
  %84 = getelementptr inbounds nuw %struct.hostlist, ptr %83, i32 0, i32 1
  %85 = call i32 @pthread_mutex_unlock(ptr noundef %84) #13
  store i32 %85, ptr %8, align 4
  %86 = load i32, ptr %8, align 4
  %87 = icmp ne i32 %86, 0
  br i1 %87, label %88, label %91

88:                                               ; preds = %82
  %89 = load i32, ptr %8, align 4
  %90 = call ptr @__errno_location() #14
  store i32 %89, ptr %90, align 4
  call void (ptr, ...) @fatal_abort(ptr noundef @.str.4, ptr noundef @__func__.hostlist_uniq) #15
  unreachable

91:                                               ; preds = %82
  call void @llvm.lifetime.end.p0(i64 4, ptr %8) #13
  br label %92

92:                                               ; preds = %91
  br label %93

93:                                               ; preds = %92
  br label %94

94:                                               ; preds = %93
  br label %95

95:                                               ; preds = %94
  store i32 0, ptr %7, align 4
  br label %96

96:                                               ; preds = %95, %43
  call void @llvm.lifetime.end.p0(i64 8, ptr %4) #13
  call void @llvm.lifetime.end.p0(i64 4, ptr %3) #13
  %97 = load i32, ptr %7, align 4
  switch i32 %97, label %99 [
    i32 0, label %98
    i32 1, label %98
  ]

98:                                               ; preds = %96, %96
  ret void

99:                                               ; preds = %96
  unreachable
}