; Function Attrs: nounwind uwtable
define dso_local void @hostlist_uniq(ptr noundef %0) #0 {
  %2 = getelementptr inbounds nuw i8, ptr %0, i64 8
  %3 = tail call i32 @pthread_mutex_lock(ptr noundef nonnull %2) #22
  %.not = icmp eq i32 %3, 0
  br i1 %.not, label %6, label %4

4:                                                ; preds = %1
  %5 = tail call ptr @__errno_location() #24
  store i32 %3, ptr %5, align 4
  tail call void (ptr, ...) @fatal_abort(ptr noundef nonnull @.str.3, ptr noundef nonnull @__func__.hostlist_uniq) #25
  unreachable

6:                                                ; preds = %1
  %7 = getelementptr inbounds nuw i8, ptr %0, i64 52
  %8 = load i32, ptr %7, align 4
  %9 = icmp slt i32 %8, 2
  br i1 %9, label %10, label %14

10:                                               ; preds = %6
  %11 = tail call i32 @pthread_mutex_unlock(ptr noundef nonnull %2) #22
  %.not27 = icmp eq i32 %11, 0
  br i1 %.not27, label %49, label %12

12:                                               ; preds = %10
  %13 = tail call ptr @__errno_location() #24
  store i32 %11, ptr %13, align 4
  tail call void (ptr, ...) @fatal_abort(ptr noundef nonnull @.str.4, ptr noundef nonnull @__func__.hostlist_uniq) #25
  unreachable

14:                                               ; preds = %6
  %15 = getelementptr inbounds nuw i8, ptr %0, i64 64
  %16 = load ptr, ptr %15, align 8
  %17 = zext nneg i32 %8 to i64
  tail call void @qsort(ptr noundef %16, i64 noundef %17, i64 noundef 8, ptr noundef nonnull @_cmp) #22
  %18 = load i32, ptr %7, align 4
  %19 = icmp sgt i32 %18, 1
  br i1 %19, label %.lr.ph, label %._crit_edge

.lr.ph:                                           ; preds = %14
  %20 = getelementptr inbounds nuw i8, ptr %0, i64 56
  br label %21

21:                                               ; preds = %.lr.ph, %_attempt_range_join.exit
  %.028 = phi i32 [ 1, %.lr.ph ], [ %spec.select, %_attempt_range_join.exit ]
  %22 = load ptr, ptr %15, align 8
  %23 = zext nneg i32 %.028 to i64
  %24 = getelementptr ptr, ptr %22, i64 %23
  %25 = getelementptr i8, ptr %24, i64 -8
  %26 = load ptr, ptr %25, align 8
  %27 = load ptr, ptr %24, align 8
  %28 = tail call fastcc i32 @hostrange_join(ptr noundef %26, ptr noundef %27)
  %29 = icmp sgt i32 %28, -1
  br i1 %29, label %30, label %_attempt_range_join.exit

30:                                               ; preds = %21
  tail call fastcc void @hostlist_delete_range(ptr noundef nonnull %0, i32 noundef %.028)
  %31 = load i32, ptr %20, align 8
  %32 = sub nsw i32 %31, %28
  store i32 %32, ptr %20, align 8
  br label %_attempt_range_join.exit

_attempt_range_join.exit:                         ; preds = %21, %30
  %33 = lshr i32 %28, 31
  %spec.select = add nuw nsw i32 %33, %.028
  %34 = load i32, ptr %7, align 4
  %35 = icmp slt i32 %spec.select, %34
  br i1 %35, label %21, label %._crit_edge, !llvm.loop !44

._crit_edge:                                      ; preds = %_attempt_range_join.exit, %14
  %36 = getelementptr inbounds nuw i8, ptr %0, i64 72
  %.02029 = load ptr, ptr %36, align 8
  %.not2530 = icmp eq ptr %.02029, null
  br i1 %.not2530, label %._crit_edge34, label %.lr.ph33

.lr.ph33:                                         ; preds = %._crit_edge, %.lr.ph33
  %.02031 = phi ptr [ %.020, %.lr.ph33 ], [ %.02029, %._crit_edge ]
  %37 = getelementptr inbounds nuw i8, ptr %.02031, i64 16
  store i32 0, ptr %37, align 8
  %38 = getelementptr inbounds nuw i8, ptr %.02031, i64 8
  %39 = load ptr, ptr %38, align 8
  %40 = getelementptr inbounds nuw i8, ptr %39, i64 64
  %41 = load ptr, ptr %40, align 8
  %42 = load ptr, ptr %41, align 8
  %43 = getelementptr inbounds nuw i8, ptr %.02031, i64 24
  store ptr %42, ptr %43, align 8
  %44 = getelementptr inbounds nuw i8, ptr %.02031, i64 32
  store i32 -1, ptr %44, align 8
  %45 = getelementptr inbounds nuw i8, ptr %.02031, i64 40
  %.020 = load ptr, ptr %45, align 8
  %.not25 = icmp eq ptr %.020, null
  br i1 %.not25, label %._crit_edge34, label %.lr.ph33, !llvm.loop !45

._crit_edge34:                                    ; preds = %.lr.ph33, %._crit_edge
  %46 = tail call i32 @pthread_mutex_unlock(ptr noundef nonnull %2) #22
  %.not26 = icmp eq i32 %46, 0
  br i1 %.not26, label %49, label %47

47:                                               ; preds = %._crit_edge34
  %48 = tail call ptr @__errno_location() #24
  store i32 %46, ptr %48, align 4
  tail call void (ptr, ...) @fatal_abort(ptr noundef nonnull @.str.4, ptr noundef nonnull @__func__.hostlist_uniq) #25
  unreachable

49:                                               ; preds = %._crit_edge34, %10
  ret void
}